Certificate:
    Data:
        Version: 1 (0x0)
        Serial Number: 64213 (0xfad5)
        Signature Algorithm: md5WithRSAEncryption
        Issuer: C=US, ST=Ohio, O=NHIN Direct CA, CN=ca.nhindirect.org
        Validity
            Not Before: May 12 17:49:02 2010 GMT
            Not After : May  9 17:49:02 2020 GMT
        Subject: C=US, O=NHIN Direct HISP, CN=nhin.happyvalleypractice.example.org
        Subject Public Key Info:
            Public Key Algorithm: rsaEncryption
            RSA Public Key: (1024 bit)
                Modulus (1024 bit):
                    00:a8:d8:cf:2e:0c:0f:e6:ba:d9:13:fe:b2:84:32:
                    1d:c8:b4:97:f7:0b:62:40:32:22:74:ba:88:6a:97:
                    23:89:7f:47:bd:f7:71:88:8b:14:19:50:cb:53:3a:
                    08:d0:90:8b:c8:4b:ba:09:94:c1:38:15:cb:3c:53:
                    f8:96:82:a4:d0:db:0b:aa:3f:5f:f2:b5:b9:44:3d:
                    1d:e7:12:72:60:c2:ab:a9:8e:31:10:ee:32:f7:07:
                    16:11:77:56:3f:e3:c5:25:f1:5c:98:c8:01:de:9a:
                    8e:a9:6c:c8:6e:5e:14:cd:8d:9c:12:d1:a7:8b:09:
                    26:6c:aa:15:fc:bd:4a:ae:77
                Exponent: 65537 (0x10001)
    Signature Algorithm: md5WithRSAEncryption
        2e:33:a5:97:71:05:e9:23:30:a6:ad:93:2d:92:86:2e:ca:c9:
        fc:91:ce:be:c3:a2:f0:39:c2:b7:f9:a1:db:f7:e4:fd:77:d4:
        44:70:4f:1b:fe:71:78:e1:55:c4:93:76:ae:9e:c0:57:2b:ac:
        ed:ab:e5:1e:66:1b:e9:e3:73:34
-----BEGIN CERTIFICATE-----
MIIB2DCCAYICAwD61TANBgkqhkiG9w0BAQQFADBRMQswCQYDVQQGEwJVUzENMAsG
A1UECBMET2hpbzEXMBUGA1UEChMOTkhJTiBEaXJlY3QgQ0ExGjAYBgNVBAMTEWNh
Lm5oaW5kaXJlY3Qub3JnMB4XDTEwMDUxMjE3NDkwMloXDTIwMDUwOTE3NDkwMlow
VzELMAkGA1UEBhMCVVMxGTAXBgNVBAoTEE5ISU4gRGlyZWN0IEhJU1AxLTArBgNV
BAMTJG5oaW4uaGFwcHl2YWxsZXlwcmFjdGljZS5leGFtcGxlLm9yZzCBnzANBgkq
hkiG9w0BAQEFAAOBjQAwgYkCgYEAqNjPLgwP5rrZE/6yhDIdyLSX9wtiQDIidLqI
apcjiX9HvfdxiIsUGVDLUzoI0JCLyEu6CZTBOBXLPFP4loKk0NsLqj9f8rW5RD0d
5xJyYMKrqY4xEO4y9wcWEXdWP+PFJfFcmMgB3pqOqWzIbl4UzY2cEtGniwkmbKoV
/L1KrncCAwEAATANBgkqhkiG9w0BAQQFAANBAC4zpZdxBekjMKatky2Shi7KyfyR
zr7DovA5wrf5odv35P131ERwTxv+cXjhVcSTdq6ewFcrrO2r5R5mG+njczQ=
-----END CERTIFICATE-----
